#include <math.h>
#include <stdio.h>
#include <stdlib.h>
#include <string.h>

main()
{
	int m,i,k,t;
	scanf("%d",&m);
	for(i=3;i<=(m/2);i=i+2)
	{
	for(t=2;t<=(i/2);t++)
	if(i%t==0)
	break;
	if(t>(i/2))
	{
	for(t=2;t<=((m-i)/2);t++)
	if((m-i)%t==0)
		break;
	if(t>(m-i)/2)
		printf("%d %d\n",i,m-i);
	}
	}
}